Certificate:
    Data:
        Version: 3 (0x2)
        Serial Number:
            b3:a7:35:42:b5:5f:55:9a:00:00:00:00:00:00:00:00
    Signature Algorithm: sha256WithRSAEncryption
        Issuer: C=CN, ST=GuangDong, L=ShenZhen, O=Huawei Technologies Co., Ltd, OU=OSS & Service Tools Dept, CN=OSS3.0 CA
        Validity
            Not Before: Mar 16 00:00:00 2017 GMT
            Not After : Mar 10 00:00:00 2042 GMT
        Subject: C=CN, ST=GuangDong, L=ShenZhen, O=Huawei Technologies Co., Ltd, OU=OSS & Service Tools Dept, CN=OSS3.0 CA
        Subject Public Key Info:
            Public Key Algorithm: rsaEncryption
                Public-Key: (4096 bit)
                Modulus:
                    00:d9:86:84:b8:0b:56:08:24:03:0f:91:28:72:69:
                    39:36:6c:06:b9:bc:e3:b9:60:73:a2:3e:88:e5:d5:
                    46:6e:0f:c3:46:91:4f:a7:94:00:2b:9f:0f:e4:e5:
                    28:86:a6:9a:a4:3a:dc:06:bc:db:8e:95:6f:28:cf:
                    6c:51:6f:b7:4d:18:74:da:a2:8a:05:e2:51:7a:b5:
                    25:5d:d7:fa:1d:f3:b3:2f:2f:2d:51:33:e1:30:b3:
                    32:de:f6:06:5c:d8:f2:d9:99:08:8f:f3:99:fd:b0:
                    1b:15:64:6b:df:e8:9d:e4:91:30:d0:10:03:87:70:
                    38:ef:ec:d4:e2:a4:16:05:a5:65:50:8a:d9:69:dc:
                    1b:c3:4d:17:2b:e5:97:1c:e9:29:25:12:c3:5d:38:
                    e6:81:30:ee:95:3f:49:1f:b7:59:da:10:63:da:6f:
                    ad:a8:f3:c3:76:dd:8b:3b:fc:b0:96:06:25:18:64:
                    3b:c0:e6:56:6f:d2:cc:74:7e:f6:42:ba:6c:8b:a7:
                    c5:ed:c5:b9:f1:43:fc:9a:55:b2:b0:e6:ad:20:8c:
                    3e:82:a7:51:04:ee:a7:ba:67:65:31:1e:dd:21:e7:
                    1b:b2:05:a8:f6:a2:20:9b:ac:ec:ed:a7:20:6e:66:
                    04:33:0c:ae:6b:89:07:c1:c7:e9:83:9c:5a:a2:d9:
                    4c:3f:05:11:fe:ae:05:5f:30:0a:0d:c2:5d:76:42:
                    ee:21:0a:2d:65:6d:03:27:d8:80:a1:9c:33:e8:fe:
                    37:85:1f:eb:1b:8f:de:28:69:6e:cc:c7:0f:c2:e7:
                    16:ff:a9:12:f0:e2:75:26:db:8f:74:be:0a:23:76:
                    2f:0a:af:e5:6f:c8:80:08:7c:1b:d7:cd:88:e6:b2:
                    68:03:6b:e1:83:25:a3:2b:29:f0:9c:27:9b:3c:98:
                    e1:2d:9f:88:e4:f1:2b:67:02:d7:ff:37:e6:b5:31:
                    91:49:9a:80:b2:59:68:76:72:f2:30:5b:3e:cf:4f:
                    ed:b8:71:e2:51:3a:9a:01:3c:0c:84:99:9e:86:36:
                    d0:88:de:bb:63:c3:6e:3f:07:a9:93:c8:25:62:a9:
                    83:a7:ab:9c:d9:a6:26:c4:f3:51:f3:be:40:77:16:
                    e1:17:2d:55:47:35:69:36:09:4a:80:a9:9d:c0:fe:
                    95:ce:b1:78:b5:a9:f6:da:96:86:ab:62:16:60:e9:
                    2e:c0:bb:62:d3:7e:f2:e4:a2:cc:0b:34:00:1c:2f:
                    03:1b:3a:72:be:f6:93:fc:88:34:6f:3b:72:3a:c0:
                    f8:2a:d5:b1:7b:ba:c6:ed:90:cd:0f:1c:89:17:db:
                    19:57:c0:a0:be:26:75:bd:35:2f:2a:b5:68:be:5d:
                    1b:a1:3b
                Exponent: 65537 (0x10001)
        X509v3 extensions:
            X509v3 Basic Constraints: 
                CA:TRUE
            X509v3 Key Usage: critical
                Certificate Sign, CRL Sign
            X509v3 Subject Key Identifier: 
                4F:45:44:E2:97:BE:CA:28:56:1A:E9:89:0F:EA:93:C6:88:C6:38:A3
            X509v3 Authority Key Identifier: 
                keyid:4F:45:44:E2:97:BE:CA:28:56:1A:E9:89:0F:EA:93:C6:88:C6:38:A3
                DirName:/C=CN/ST=GuangDong/L=ShenZhen/O=Huawei Technologies Co., Ltd/OU=OSS & Service Tools Dept/CN=OSS3.0 CA
                serial:B3:A7:35:42:B5:5F:55:9A:00:00:00:00:00:00:00:00

            X509v3 Subject Alternative Name: 
                email:oss3ca@huawei.com
    Signature Algorithm: sha256WithRSAEncryption
         d6:60:fe:a9:00:0b:a7:b1:25:95:bc:ff:83:2a:45:32:ca:10:
         90:4e:0d:0d:12:93:23:c0:27:93:5d:0a:4a:8a:59:01:12:53:
         aa:ec:61:f8:60:46:04:47:7d:77:f5:5b:cc:87:12:05:4c:b3:
         01:c9:b9:14:6d:ea:59:e7:ee:0f:e5:8b:96:7e:67:f6:64:02:
         8a:d3:51:c2:0f:3c:60:74:2d:3d:36:36:d1:dd:88:3d:5b:09:
         64:34:25:36:36:74:e2:55:6b:32:24:ae:21:fe:2e:0a:15:97:
         1f:fb:2b:79:27:33:04:6b:55:1d:d0:20:81:57:04:31:3c:21:
         ea:76:cd:fc:66:6f:47:a7:8a:14:91:d3:30:19:12:e0:94:91:
         01:df:f4:c7:f9:40:4d:ee:c7:f0:11:61:12:3c:b3:9c:d6:dc:
         ad:0e:d1:ce:e6:98:82:37:66:86:84:75:a4:a6:06:a7:7e:78:
         b7:9b:47:d1:71:0f:01:ae:e4:50:88:d1:bd:b2:89:5c:dc:ab:
         94:f9:74:3f:28:27:94:48:9a:a2:9a:47:df:2b:10:e6:d9:18:
         08:6e:88:c5:61:99:22:18:74:3d:50:39:15:09:ec:e5:66:2e:
         47:e8:f1:d0:c0:52:de:98:ee:21:4a:f5:09:c4:b9:fe:01:cf:
         96:02:9d:ab:3d:80:8c:36:0e:0d:ce:93:bc:d9:62:40:7a:9b:
         03:91:65:9d:ef:20:43:60:43:5f:b3:16:4b:5b:3e:88:ed:e0:
         e5:e0:3d:75:11:b4:1f:20:59:86:57:0b:77:48:9d:5a:61:c5:
         69:aa:c5:8a:c5:93:3c:51:9a:36:d8:c1:1e:b8:89:7c:57:fb:
         c2:59:fe:ca:1e:86:7b:d9:23:bd:bb:06:12:9c:bf:3b:ef:a0:
         8e:5a:06:66:1b:48:06:76:13:6e:1f:70:4d:5c:56:b5:08:94:
         c1:a7:75:9e:66:91:e4:30:da:52:1c:32:d3:13:e3:63:52:3c:
         7a:25:48:69:fa:87:22:95:35:ab:0b:99:05:19:ce:82:2f:56:
         cc:51:a9:24:89:f9:f7:2c:0e:ea:c1:b3:21:2f:97:a7:4e:d6:
         30:fb:9a:99:fb:43:9a:b5:d0:6e:f8:bc:9d:ef:79:ed:66:71:
         4a:fe:87:c4:16:fa:e4:fe:b0:26:f6:38:71:2e:ad:a3:a3:31:
         93:05:c5:ba:ad:e6:d4:e0:19:c2:3d:3e:99:01:4a:ef:7c:f1:
         a3:63:d4:1f:da:e1:ae:68:55:98:40:95:ce:c1:41:bf:d9:b3:
         8f:0e:47:9b:bd:fc:8e:0a:40:c6:7e:67:9a:4c:3b:f6:1b:f8:
         b8:aa:d5:e5:7e:6a:15:66
-----BEGIN CERTIFICATE-----
MIIG5DCCBMygAwIBAgIRALOnNUK1X1WaAAAAAAAAAAAwDQYJKoZIhvcNAQELBQAw
gZIxCzAJBgNVBAYTAkNOMRIwEAYDVQQIDAlHdWFuZ0RvbmcxETAPBgNVBAcMCFNo
ZW5aaGVuMSUwIwYDVQQKDBxIdWF3ZWkgVGVjaG5vbG9naWVzIENvLiwgTHRkMSEw
HwYDVQQLDBhPU1MgJiBTZXJ2aWNlIFRvb2xzIERlcHQxEjAQBgNVBAMMCU9TUzMu
MCBDQTAeFw0xNzAzMTYwMDAwMDBaFw00MjAzMTAwMDAwMDBaMIGSMQswCQYDVQQG
EwJDTjESMBAGA1UECAwJR3VhbmdEb25nMREwDwYDVQQHDAhTaGVuWmhlbjElMCMG
A1UECgwcSHVhd2VpIFRlY2hub2xvZ2llcyBDby4sIEx0ZDEhMB8GA1UECwwYT1NT
ICYgU2VydmljZSBUb29scyBEZXB0MRIwEAYDVQQDDAlPU1MzLjAgQ0EwggIiMA0G
CSqGSIb3DQEBAQUAA4ICDwAwggIKAoICAQDZhoS4C1YIJAMPkShyaTk2bAa5vOO5
YHOiPojl1UZuD8NGkU+nlAArnw/k5SiGppqkOtwGvNuOlW8oz2xRb7dNGHTaoooF
4lF6tSVd1/od87MvLy1RM+EwszLe9gZc2PLZmQiP85n9sBsVZGvf6J3kkTDQEAOH
cDjv7NTipBYFpWVQitlp3BvDTRcr5Zcc6SklEsNdOOaBMO6VP0kft1naEGPab62o
88N23Ys7/LCWBiUYZDvA5lZv0sx0fvZCumyLp8XtxbnxQ/yaVbKw5q0gjD6Cp1EE
7qe6Z2UxHt0h5xuyBaj2oiCbrOztpyBuZgQzDK5riQfBx+mDnFqi2Uw/BRH+rgVf
MAoNwl12Qu4hCi1lbQMn2IChnDPo/jeFH+sbj94oaW7Mxw/C5xb/qRLw4nUm2490
vgojdi8Kr+VvyIAIfBvXzYjmsmgDa+GDJaMrKfCcJ5s8mOEtn4jk8StnAtf/N+a1
MZFJmoCyWWh2cvIwWz7PT+24ceJROpoBPAyEmZ6GNtCI3rtjw24/B6mTyCViqYOn
q5zZpibE81HzvkB3FuEXLVVHNWk2CUqAqZ3A/pXOsXi1qfbaloarYhZg6S7Au2LT
fvLkoswLNAAcLwMbOnK+9pP8iDRvO3I6wPgq1bF7usbtkM0PHIkX2xlXwKC+JnW9
NS8qtWi+XRuhOwIDAQABo4IBMTCCAS0wDAYDVR0TBAUwAwEB/zAOBgNVHQ8BAf8E
BAMCAQYwHQYDVR0OBBYEFE9FROKXvsooVhrpiQ/qk8aIxjijMIHPBgNVHSMEgccw
gcSAFE9FROKXvsooVhrpiQ/qk8aIxjijoYGYpIGVMIGSMQswCQYDVQQGEwJDTjES
MBAGA1UECAwJR3VhbmdEb25nMREwDwYDVQQHDAhTaGVuWmhlbjElMCMGA1UECgwc
SHVhd2VpIFRlY2hub2xvZ2llcyBDby4sIEx0ZDEhMB8GA1UECwwYT1NTICYgU2Vy
dmljZSBUb29scyBEZXB0MRIwEAYDVQQDDAlPU1MzLjAgQ0GCEQCzpzVCtV9VmgAA
AAAAAAAAMBwGA1UdEQQVMBOBEW9zczNjYUBodWF3ZWkuY29tMA0GCSqGSIb3DQEB
CwUAA4ICAQDWYP6pAAunsSWVvP+DKkUyyhCQTg0NEpMjwCeTXQpKilkBElOq7GH4
YEYER3139VvMhxIFTLMBybkUbepZ5+4P5YuWfmf2ZAKK01HCDzxgdC09NjbR3Yg9
WwlkNCU2NnTiVWsyJK4h/i4KFZcf+yt5JzMEa1Ud0CCBVwQxPCHqds38Zm9Hp4oU
kdMwGRLglJEB3/TH+UBN7sfwEWESPLOc1tytDtHO5piCN2aGhHWkpganfni3m0fR
cQ8BruRQiNG9solc3KuU+XQ/KCeUSJqimkffKxDm2RgIbojFYZkiGHQ9UDkVCezl
Zi5H6PHQwFLemO4hSvUJxLn+Ac+WAp2rPYCMNg4NzpO82WJAepsDkWWd7yBDYENf
sxZLWz6I7eDl4D11EbQfIFmGVwt3SJ1aYcVpqsWKxZM8UZo22MEeuIl8V/vCWf7K
HoZ72SO9uwYSnL8776COWgZmG0gGdhNuH3BNXFa1CJTBp3WeZpHkMNpSHDLTE+Nj
Ujx6JUhp+ocilTWrC5kFGc6CL1bMUakkifn3LA7qwbMhL5enTtYw+5qZ+0OatdBu
+Lyd73ntZnFK/ofEFvrk/rAm9jhxLq2jozGTBcW6rebU4BnCPT6ZAUrvfPGjY9Qf
2uGuaFWYQJXOwUG/2bOPDkebvfyOCkDGfmeaTDv2G/i4qtXlfmoVZg==
-----END CERTIFICATE-----
